target datalayout = "e-m:e-p270:32:32-p271:32:32-p272:64:64-i64:64-i128:128-f80:128-n8:16:32:64-S128"
target triple = "x86_64-pc-linux-gnu"

%class.Archive = type <{ %class.File, %class.CryptData, %class.ComprDataIO, i8, [7 x i8], ptr, %class.RarTime, i32, i32, i8, [7 x i8], %class.QuickOpen, i8, [3 x i8], %struct.BaseBlock, %struct.MarkHeader, [4 x i8], %struct.MainHeader, %struct.CryptHeader, [4 x i8], %struct.FileHeader, %struct.EndArcHeader, %struct.SubBlockHeader, [4 x i8], %struct.FileHeader, %struct.CommentHeader, %struct.ProtectHeader, %struct.EAHeader, %struct.StreamHeader, [4 x i8], i64, i64, i32, i8, i8, i8, i8, i8, i8, i8, i8, i8, [3 x i8], i64, i8, i8, [16 x i8], i8, i8, i32, i64, i64, i64, i8, [3 x i8], [2048 x i32], [4 x i8] }>
%class.File = type { ptr, i64, i8, i32, i8, i8, i32, i8, i8, i8, i8, i8, i64, i8, [2048 x i32], i32, ptr }
%class.CryptData = type { [4 x %"struct.CryptData::KDF3CacheItem"], i32, [4 x i8], [4 x %"struct.CryptData::KDF5CacheItem"], i32, i32, %class.Rijndael, [256 x i32], [256 x i8], [4 x i32], [3 x i8], [4 x i16], [4 x i8] }
%"struct.CryptData::KDF3CacheItem" = type { %class.SecPassword, [8 x i8], [16 x i8], [16 x i8], i8, [7 x i8] }
%class.SecPassword = type <{ %"class.std::vector", i8, [7 x i8] }>
%"class.std::vector" = type { %"struct.std::_Vector_base" }
%"struct.std::_Vector_base" = type { %"struct.std::_Vector_base<wchar_t, std::allocator<wchar_t>>::_Vector_impl" }
%"struct.std::_Vector_base<wchar_t, std::allocator<wchar_t>>::_Vector_impl" = type { %"struct.std::_Vector_base<wchar_t, std::allocator<wchar_t>>::_Vector_impl_data" }
%"struct.std::_Vector_base<wchar_t, std::allocator<wchar_t>>::_Vector_impl_data" = type { ptr, ptr, ptr }
%"struct.CryptData::KDF5CacheItem" = type { %class.SecPassword, [16 x i8], [32 x i8], i32, [32 x i8], [32 x i8], [4 x i8] }
%class.Rijndael = type { i8, i32, [16 x i8], [15 x [4 x [4 x i8]]] }
%class.ComprDataIO = type <{ i8, [7 x i8], i64, ptr, i8, [7 x i8], i64, ptr, i64, ptr, i64, i64, i8, i8, i8, i8, [4 x i8], ptr, ptr, ptr, ptr, ptr, ptr, ptr, i32, i32, i8, i8, i8, [5 x i8], i64, i64, i64, i64, i64, i64, i64, %class.DataHash, %class.DataHash, %class.DataHash, i8, i8, [6 x i8] }>
%class.DataHash = type { i32, i32, ptr }
%class.RarTime = type { i64 }
%class.QuickOpen = type <{ ptr, i8, [7 x i8], ptr, ptr, ptr, i64, %class.CryptData, i8, [7 x i8], i64, i64, i64, i64, i64, i64, %class.Array, i64, i64, i8, [7 x i8] }>
%class.Array = type { ptr, i64, i64, i64 }
%struct.BaseBlock = type { i32, i32, i32, i32, i8 }
%struct.MarkHeader = type { [8 x i8], i32 }
%struct.MainHeader = type { %struct.BaseBlock, i16, i32, i8, i8, i8, i64, i64, i64, i64, i64, %"class.std::__cxx11::basic_string", %class.RarTime }
%"class.std::__cxx11::basic_string" = type { %"struct.std::__cxx11::basic_string<wchar_t>::_Alloc_hider", i64, %union.anon }
%"struct.std::__cxx11::basic_string<wchar_t>::_Alloc_hider" = type { ptr }
%union.anon = type { i64, [8 x i8] }
%struct.CryptHeader = type { %struct.BaseBlock, i8, i32, [16 x i8], [8 x i8] }
%struct.EndArcHeader = type { %struct.BaseBlock, i32, i32, i8, i8, i8, i8 }
%struct.SubBlockHeader = type <{ %struct.BlockHeader, i16, i8, i8 }>
%struct.BlockHeader = type { %struct.BaseBlock, i32 }
%struct.FileHeader = type { %struct.BlockHeader, i8, i32, i8, %union.anon.0, [2048 x i32], %class.Array, %class.RarTime, %class.RarTime, %class.RarTime, i64, i64, i64, %struct.HashValue, i32, i8, i8, i8, i8, i32, i8, [16 x i8], [16 x i8], i8, [8 x i8], i8, [32 x i8], i32, i8, i8, i8, i8, i64, i8, i8, i8, i32, i32, [2048 x i32], i8, i8, i8, i8, [256 x i8], [256 x i8], i32, i32 }
%union.anon.0 = type { i32 }
%struct.HashValue = type { i32, %union.anon.1 }
%union.anon.1 = type { i32, [28 x i8] }
%struct.CommentHeader = type <{ %struct.BaseBlock, i16, i8, i8, i16, [2 x i8] }>
%struct.ProtectHeader = type { %struct.BlockHeader, i8, i16, i32, [8 x i8] }
%struct.EAHeader = type { %struct.SubBlockHeader.base, i32, i8, i8, i32 }
%struct.SubBlockHeader.base = type <{ %struct.BlockHeader, i16, i8 }>
%struct.StreamHeader = type <{ %struct.SubBlockHeader.base, i8, i32, i8, i8, [2 x i8], i32, i16, [260 x i8], [2 x i8] }>

; Function Attrs: mustprogress uwtable
define noundef i64 @_ZN7Archive4TellEv(ptr noundef nonnull align 8 dereferenceable(57108) %0) unnamed_addr #0 align 2 {
  %2 = alloca i64, align 8
  %3 = alloca ptr, align 8
  %4 = alloca i64, align 8
  store ptr %0, ptr %3, align 8
  %5 = load ptr, ptr %3, align 8
  %6 = getelementptr inbounds %class.Archive, ptr %5, i32 0, i32 11
  %7 = call noundef zeroext i1 @_ZN9QuickOpen4TellEPl(ptr noundef nonnull align 8 dereferenceable(2673) %6, ptr noundef %4)
  br i1 %7, label %8, label %10

8:                                                ; preds = %1
  %9 = load i64, ptr %4, align 8
  store i64 %9, ptr %2, align 8
  br label %12

10:                                               ; preds = %1
  %11 = call noundef i64 @_ZN4File4TellEv(ptr noundef nonnull align 8 dereferenceable(8256) %5)
  store i64 %11, ptr %2, align 8
  br label %12

12:                                               ; preds = %10, %8
  %13 = load i64, ptr %2, align 8
  ret i64 %13
}