; Function Attrs: mustprogress uwtable
define noundef i64 @_ZN7Archive4TellEv(ptr noundef nonnull align 8 dereferenceable(57108) %0) unnamed_addr #0 align 2 {
  %2 = alloca i64, align 8
  %3 = getelementptr inbounds i8, ptr %0, i64 11088
  %4 = call noundef zeroext i1 @_ZN9QuickOpen4TellEPl(ptr noundef nonnull align 8 dereferenceable(2673) %3, ptr noundef nonnull %2)
  br i1 %4, label %5, label %7

5:                                                ; preds = %1
  %6 = load i64, ptr %2, align 8
  br label %9

7:                                                ; preds = %1
  %8 = call noundef i64 @_ZN4File4TellEv(ptr noundef nonnull align 8 dereferenceable(8256) %0)
  br label %9

9:                                                ; preds = %7, %5
  %.0 = phi i64 [ %6, %5 ], [ %8, %7 ]
  ret i64 %.0
}